target datalayout = "e-m:e-p270:32:32-p271:32:32-p272:64:64-i64:64-i128:128-f80:128-n8:16:32:64-S128"
target triple = "x86_64-pc-linux-gnu"

@PyExc_SystemError = external global ptr, align 8
@.str.10 = private unnamed_addr constant [26 x i8] c"unmatched paren in format\00", align 1

; Function Attrs: nounwind uwtable
define internal i64 @countformat(ptr noundef %0, i8 noundef signext %1) #0 {
  %3 = alloca i64, align 8
  %4 = alloca ptr, align 8
  %5 = alloca i8, align 1
  %6 = alloca i64, align 8
  %7 = alloca i32, align 4
  %8 = alloca i32, align 4
  store ptr %0, ptr %4, align 8, !tbaa !27
  store i8 %1, ptr %5, align 1, !tbaa !35
  call void @llvm.lifetime.start.p0(i64 8, ptr %6) #7
  store i64 0, ptr %6, align 8, !tbaa !10
  call void @llvm.lifetime.start.p0(i64 4, ptr %7) #7
  store i32 0, ptr %7, align 4, !tbaa !34
  br label %9

9:                                                ; preds = %47, %2
  %10 = load i32, ptr %7, align 4, !tbaa !34
  %11 = icmp sgt i32 %10, 0
  br i1 %11, label %19, label %12

12:                                               ; preds = %9
  %13 = load ptr, ptr %4, align 8, !tbaa !27
  %14 = load i8, ptr %13, align 1, !tbaa !35
  %15 = sext i8 %14 to i32
  %16 = load i8, ptr %5, align 1, !tbaa !35
  %17 = sext i8 %16 to i32
  %18 = icmp ne i32 %15, %17
  br label %19

19:                                               ; preds = %12, %9
  %20 = phi i1 [ true, %9 ], [ %18, %12 ]
  br i1 %20, label %21, label %50

21:                                               ; preds = %19
  %22 = load ptr, ptr %4, align 8, !tbaa !27
  %23 = load i8, ptr %22, align 1, !tbaa !35
  %24 = sext i8 %23 to i32
  switch i32 %24, label %40 [
    i32 0, label %25
    i32 40, label %27
    i32 91, label %27
    i32 123, label %27
    i32 41, label %36
    i32 93, label %36
    i32 125, label %36
    i32 35, label %39
    i32 38, label %39
    i32 44, label %39
    i32 58, label %39
    i32 32, label %39
    i32 9, label %39
  ]

25:                                               ; preds = %21
  %26 = load ptr, ptr @PyExc_SystemError, align 8, !tbaa !4
  call void @PyErr_SetString(ptr noundef %26, ptr noundef @.str.10)
  store i64 -1, ptr %3, align 8
  store i32 1, ptr %8, align 4
  br label %52

27:                                               ; preds = %21, %21, %21
  %28 = load i32, ptr %7, align 4, !tbaa !34
  %29 = icmp eq i32 %28, 0
  br i1 %29, label %30, label %33

30:                                               ; preds = %27
  %31 = load i64, ptr %6, align 8, !tbaa !10
  %32 = add i64 %31, 1
  store i64 %32, ptr %6, align 8, !tbaa !10
  br label %33

33:                                               ; preds = %30, %27
  %34 = load i32, ptr %7, align 4, !tbaa !34
  %35 = add i32 %34, 1
  store i32 %35, ptr %7, align 4, !tbaa !34
  br label %47

36:                                               ; preds = %21, %21, %21
  %37 = load i32, ptr %7, align 4, !tbaa !34
  %38 = add i32 %37, -1
  store i32 %38, ptr %7, align 4, !tbaa !34
  br label %47

39:                                               ; preds = %21, %21, %21, %21, %21, %21
  br label %47

40:                                               ; preds = %21
  %41 = load i32, ptr %7, align 4, !tbaa !34
  %42 = icmp eq i32 %41, 0
  br i1 %42, label %43, label %46

43:                                               ; preds = %40
  %44 = load i64, ptr %6, align 8, !tbaa !10
  %45 = add i64 %44, 1
  store i64 %45, ptr %6, align 8, !tbaa !10
  br label %46

46:                                               ; preds = %43, %40
  br label %47

47:                                               ; preds = %46, %39, %36, %33
  %48 = load ptr, ptr %4, align 8, !tbaa !27
  %49 = getelementptr i8, ptr %48, i32 1
  store ptr %49, ptr %4, align 8, !tbaa !27
  br label %9, !llvm.loop !36

50:                                               ; preds = %19
  %51 = load i64, ptr %6, align 8, !tbaa !10
  store i64 %51, ptr %3, align 8
  store i32 1, ptr %8, align 4
  br label %52

52:                                               ; preds = %50, %25
  call void @llvm.lifetime.end.p0(i64 4, ptr %7) #7
  call void @llvm.lifetime.end.p0(i64 8, ptr %6) #7
  %53 = load i64, ptr %3, align 8
  ret i64 %53
}