; Function Attrs: nounwind uwtable
define internal fastcc i64 @countformat(ptr noundef readonly captures(none) %0, i8 noundef signext range(i8 0, 126) %1) unnamed_addr #0 {
  %.pr22 = load i8, ptr %0, align 1, !tbaa !29
  %.not23 = icmp eq i8 %.pr22, %1
  br i1 %.not23, label %.loopexit, label %.critedge

.critedge:                                        ; preds = %2, %14
  %.pr27 = phi i8 [ %.pr, %14 ], [ %.pr22, %2 ]
  %.026 = phi i32 [ %.1, %14 ], [ 0, %2 ]
  %.01225 = phi i64 [ %.2, %14 ], [ 0, %2 ]
  %.01524 = phi ptr [ %15, %14 ], [ %0, %2 ]
  switch i8 %.pr27, label %11 [
    i8 0, label %3
    i8 40, label %5
    i8 91, label %5
    i8 123, label %5
    i8 41, label %9
    i8 93, label %9
    i8 125, label %9
    i8 35, label %14
    i8 38, label %14
    i8 44, label %14
    i8 58, label %14
    i8 32, label %14
    i8 9, label %14
  ]

3:                                                ; preds = %.critedge
  %4 = load ptr, ptr @PyExc_SystemError, align 8, !tbaa !23
  tail call void @PyErr_SetString(ptr noundef %4, ptr noundef nonnull @.str.10) #7
  br label %.loopexit

5:                                                ; preds = %.critedge, %.critedge, %.critedge
  %6 = icmp eq i32 %.026, 0
  %7 = zext i1 %6 to i64
  %spec.select = add i64 %.01225, %7
  %8 = add i32 %.026, 1
  br label %14

9:                                                ; preds = %.critedge, %.critedge, %.critedge
  %10 = add i32 %.026, -1
  br label %14

11:                                               ; preds = %.critedge
  %12 = icmp eq i32 %.026, 0
  %13 = zext i1 %12 to i64
  %spec.select16 = add i64 %.01225, %13
  br label %14

14:                                               ; preds = %11, %.critedge, %.critedge, %.critedge, %.critedge, %.critedge, %.critedge, %9, %5
  %.2 = phi i64 [ %.01225, %.critedge ], [ %.01225, %.critedge ], [ %.01225, %.critedge ], [ %.01225, %.critedge ], [ %.01225, %.critedge ], [ %.01225, %.critedge ], [ %.01225, %9 ], [ %spec.select, %5 ], [ %spec.select16, %11 ]
  %.1 = phi i32 [ %.026, %.critedge ], [ %.026, %.critedge ], [ %.026, %.critedge ], [ %.026, %.critedge ], [ %.026, %.critedge ], [ %.026, %.critedge ], [ %10, %9 ], [ %8, %5 ], [ %.026, %11 ]
  %15 = getelementptr i8, ptr %.01524, i64 1
  %16 = icmp slt i32 %.1, 1
  %.pr = load i8, ptr %15, align 1, !tbaa !29
  %.not = icmp eq i8 %.pr, %1
  %or.cond = select i1 %16, i1 %.not, i1 false
  br i1 %or.cond, label %.loopexit, label %.critedge, !llvm.loop !32

.loopexit:                                        ; preds = %14, %2, %3
  %.014 = phi i64 [ -1, %3 ], [ 0, %2 ], [ %.2, %14 ]
  ret i64 %.014
}